; Function Attrs: mustprogress nounwind uwtable
define hidden noundef ptr @_ZN8DivFNode5IdealEP8PhaseGVNb(ptr noundef nonnull align 8 dereferenceable(52) %0, ptr noundef %1, i1 noundef zeroext %2) unnamed_addr #0 align 2 {
  %4 = alloca i32, align 4
  %5 = getelementptr inbounds i8, ptr %0, i64 8
  %6 = load ptr, ptr %5, align 8
  %7 = load ptr, ptr %6, align 8
  %.not = icmp eq ptr %7, null
  br i1 %.not, label %.thread, label %8

8:                                                ; preds = %3
  %9 = tail call noundef zeroext i1 @_ZN4Node18remove_dead_regionEP8PhaseGVNb(ptr noundef nonnull align 8 dereferenceable(52) %0, ptr noundef %1, i1 noundef zeroext %2) #8
  br i1 %9, label %63, label %10

10:                                               ; preds = %8
  %.pre = load ptr, ptr %5, align 8
  %.pre23 = load ptr, ptr %.pre, align 8
  %.not19 = icmp eq ptr %.pre23, null
  br i1 %.not19, label %.thread, label %11

11:                                               ; preds = %10
  %12 = getelementptr inbounds i8, ptr %.pre23, i64 16
  %13 = load ptr, ptr %12, align 8
  %14 = icmp eq ptr %13, null
  br i1 %14, label %63, label %.thread

.thread:                                          ; preds = %3, %11, %10
  %15 = phi ptr [ %.pre, %11 ], [ %.pre, %10 ], [ %6, %3 ]
  %16 = getelementptr inbounds i8, ptr %15, i64 16
  %17 = load ptr, ptr %16, align 8
  %18 = getelementptr inbounds i8, ptr %1, i64 40
  %19 = load ptr, ptr %18, align 8
  %20 = getelementptr inbounds i8, ptr %17, i64 40
  %21 = load i32, ptr %20, align 8
  %22 = getelementptr inbounds i8, ptr %19, i64 16
  %23 = load ptr, ptr %22, align 8
  %24 = zext i32 %21 to i64
  %25 = getelementptr inbounds ptr, ptr %23, i64 %24
  %26 = load ptr, ptr %25, align 8
  %27 = load ptr, ptr @_ZN5TypeF3ONEE, align 8
  %28 = icmp eq ptr %26, %27
  br i1 %28, label %63, label %29

29:                                               ; preds = %.thread
  %30 = getelementptr inbounds i8, ptr %26, i64 16
  %31 = load i32, ptr %30, align 8
  %32 = icmp ne i32 %31, 32
  %.not2022 = icmp eq ptr %26, null
  %.not20 = or i1 %.not2022, %32
  br i1 %.not20, label %63, label %33

33:                                               ; preds = %29
  %34 = load ptr, ptr %26, align 8
  %35 = getelementptr inbounds i8, ptr %34, i64 56
  %36 = load ptr, ptr %35, align 8
  %37 = tail call noundef zeroext i1 %36(ptr noundef nonnull align 8 dereferenceable(24) %26) #8
  br i1 %37, label %63, label %38

38:                                               ; preds = %33
  %39 = load ptr, ptr %26, align 8
  %40 = getelementptr inbounds i8, ptr %39, i64 48
  %41 = load ptr, ptr %40, align 8
  %42 = tail call noundef zeroext i1 %41(ptr noundef nonnull align 8 dereferenceable(24) %26) #8
  br i1 %42, label %43, label %63

43:                                               ; preds = %38
  %44 = getelementptr inbounds i8, ptr %26, i64 20
  %45 = load float, ptr %44, align 4
  %46 = fpext float %45 to double
  %47 = call double @frexp(double noundef %46, ptr noundef nonnull %4) #8
  %48 = fcmp une double %47, 5.000000e-01
  br i1 %48, label %63, label %49

49:                                               ; preds = %43
  %50 = load i32, ptr %4, align 4
  %51 = add i32 %50, -127
  %or.cond = icmp ult i32 %51, -253
  br i1 %or.cond, label %63, label %52

52:                                               ; preds = %49
  %53 = tail call noundef ptr @_ZN4NodenwEm(i64 noundef 56) #8
  %54 = icmp eq ptr %53, null
  br i1 %54, label %63, label %55

55:                                               ; preds = %52
  %56 = fdiv float 1.000000e+00, %45
  %57 = load ptr, ptr %5, align 8
  %58 = getelementptr inbounds i8, ptr %57, i64 8
  %59 = load ptr, ptr %58, align 8
  %60 = tail call noundef ptr @_ZN5TypeF4makeEf(float noundef %56) #8
  %61 = tail call noundef ptr @_ZN11PhaseValues7makeconEPK4Type(ptr noundef nonnull align 8 dereferenceable(2400) %1, ptr noundef %60) #8
  tail call void @_ZN4NodeC2EPS_S0_S0_(ptr noundef nonnull align 8 dereferenceable(52) %53, ptr noundef null, ptr noundef %59, ptr noundef %61) #8
  %62 = getelementptr inbounds i8, ptr %53, i64 44
  store i32 4096, ptr %62, align 4
  store ptr getelementptr inbounds inrange(-16, 248) (i8, ptr @_ZTV8MulFNode, i64 16), ptr %53, align 8
  br label %63

63:                                               ; preds = %52, %55, %49, %43, %33, %38, %29, %.thread, %11, %8
  %.0 = phi ptr [ %0, %8 ], [ null, %11 ], [ null, %.thread ], [ null, %29 ], [ null, %38 ], [ null, %33 ], [ null, %43 ], [ null, %49 ], [ %53, %55 ], [ null, %52 ]
  ret ptr %.0
}